target datalayout = "e-m:e-p270:32:32-p271:32:32-p272:64:64-i64:64-i128:128-f80:128-n8:16:32:64-S128"
target triple = "x86_64-pc-linux-gnu"

; Function Attrs: inlinehint nounwind uwtable
define internal void @_update_stats_by_ch(ptr noundef %0, ptr noundef %1, ptr noundef %2, i32 noundef %3, float noundef %4) #4 {
  %6 = alloca ptr, align 8
  %7 = alloca ptr, align 8
  %8 = alloca ptr, align 8
  %9 = alloca i32, align 4
  %10 = alloca float, align 4
  store ptr %0, ptr %6, align 8, !tbaa !13
  store ptr %1, ptr %7, align 8, !tbaa !13
  store ptr %2, ptr %8, align 8, !tbaa !13
  store i32 %3, ptr %9, align 4, !tbaa !11
  store float %4, ptr %10, align 4, !tbaa !59
  %11 = load float, ptr %10, align 4, !tbaa !59
  %12 = load ptr, ptr %6, align 8, !tbaa !13
  %13 = load i32, ptr %9, align 4, !tbaa !11
  %14 = sext i32 %13 to i64
  %15 = getelementptr inbounds float, ptr %12, i64 %14
  %16 = load float, ptr %15, align 4, !tbaa !59
  %17 = fadd reassoc nsz arcp contract afn float %16, %11
  store float %17, ptr %15, align 4, !tbaa !59
  %18 = load ptr, ptr %7, align 8, !tbaa !13
  %19 = load i32, ptr %9, align 4, !tbaa !11
  %20 = sext i32 %19 to i64
  %21 = getelementptr inbounds float, ptr %18, i64 %20
  %22 = load float, ptr %21, align 4, !tbaa !59
  %23 = load float, ptr %10, align 4, !tbaa !59
  %24 = fcmp reassoc nsz arcp contract afn olt float %22, %23
  br i1 %24, label %25, label %31

25:                                               ; preds = %5
  %26 = load ptr, ptr %7, align 8, !tbaa !13
  %27 = load i32, ptr %9, align 4, !tbaa !11
  %28 = sext i32 %27 to i64
  %29 = getelementptr inbounds float, ptr %26, i64 %28
  %30 = load float, ptr %29, align 4, !tbaa !59
  br label %33

31:                                               ; preds = %5
  %32 = load float, ptr %10, align 4, !tbaa !59
  br label %33

33:                                               ; preds = %31, %25
  %34 = phi reassoc nsz arcp contract afn float [ %30, %25 ], [ %32, %31 ]
  %35 = load ptr, ptr %7, align 8, !tbaa !13
  %36 = load i32, ptr %9, align 4, !tbaa !11
  %37 = sext i32 %36 to i64
  %38 = getelementptr inbounds float, ptr %35, i64 %37
  store float %34, ptr %38, align 4, !tbaa !59
  %39 = load ptr, ptr %8, align 8, !tbaa !13
  %40 = load i32, ptr %9, align 4, !tbaa !11
  %41 = sext i32 %40 to i64
  %42 = getelementptr inbounds float, ptr %39, i64 %41
  %43 = load float, ptr %42, align 4, !tbaa !59
  %44 = load float, ptr %10, align 4, !tbaa !59
  %45 = fcmp reassoc nsz arcp contract afn ogt float %43, %44
  br i1 %45, label %46, label %52

46:                                               ; preds = %33
  %47 = load ptr, ptr %8, align 8, !tbaa !13
  %48 = load i32, ptr %9, align 4, !tbaa !11
  %49 = sext i32 %48 to i64
  %50 = getelementptr inbounds float, ptr %47, i64 %49
  %51 = load float, ptr %50, align 4, !tbaa !59
  br label %54

52:                                               ; preds = %33
  %53 = load float, ptr %10, align 4, !tbaa !59
  br label %54

54:                                               ; preds = %52, %46
  %55 = phi reassoc nsz arcp contract afn float [ %51, %46 ], [ %53, %52 ]
  %56 = load ptr, ptr %8, align 8, !tbaa !13
  %57 = load i32, ptr %9, align 4, !tbaa !11
  %58 = sext i32 %57 to i64
  %59 = getelementptr inbounds float, ptr %56, i64 %58
  store float %55, ptr %59, align 4, !tbaa !59
  ret void
}

; Function Attrs: inlinehint nounwind uwtable
define internal void @_color_picker_rgb_or_lab(ptr noundef %0, ptr noundef %1, ptr noundef %2, ptr noundef %3, i64 noundef %4, ptr noundef %5) #4 {
  %7 = alloca ptr, align 8
  %8 = alloca ptr, align 8
  %9 = alloca ptr, align 8
  %10 = alloca ptr, align 8
  %11 = alloca i64, align 8
  %12 = alloca ptr, align 8
  %13 = alloca i64, align 8
  %14 = alloca i32, align 4
  %15 = alloca i64, align 8
  store ptr %0, ptr %7, align 8, !tbaa !13
  store ptr %1, ptr %8, align 8, !tbaa !13
  store ptr %2, ptr %9, align 8, !tbaa !13
  store ptr %3, ptr %10, align 8, !tbaa !13
  store i64 %4, ptr %11, align 8, !tbaa !122
  store ptr %5, ptr %12, align 8, !tbaa !126
  call void @llvm.lifetime.start.p0(i64 8, ptr %13) #10
  store i64 0, ptr %13, align 8, !tbaa !122
  br label %16

16:                                               ; preds = %42, %6
  %17 = load i64, ptr %13, align 8, !tbaa !122
  %18 = load i64, ptr %11, align 8, !tbaa !122
  %19 = icmp ult i64 %17, %18
  br i1 %19, label %21, label %20

20:                                               ; preds = %16
  store i32 2, ptr %14, align 4
  call void @llvm.lifetime.end.p0(i64 8, ptr %13) #10
  br label %45

21:                                               ; preds = %16
  call void @llvm.lifetime.start.p0(i64 8, ptr %15) #10
  store i64 0, ptr %15, align 8, !tbaa !122
  br label %22

22:                                               ; preds = %38, %21
  %23 = load i64, ptr %15, align 8, !tbaa !122
  %24 = icmp ult i64 %23, 4
  br i1 %24, label %26, label %25

25:                                               ; preds = %22
  store i32 5, ptr %14, align 4
  call void @llvm.lifetime.end.p0(i64 8, ptr %15) #10
  br label %41

26:                                               ; preds = %22
  %27 = load ptr, ptr %7, align 8, !tbaa !13
  %28 = load ptr, ptr %8, align 8, !tbaa !13
  %29 = load ptr, ptr %9, align 8, !tbaa !13
  %30 = load i64, ptr %15, align 8, !tbaa !122
  %31 = trunc i64 %30 to i32
  %32 = load ptr, ptr %10, align 8, !tbaa !13
  %33 = load i64, ptr %13, align 8, !tbaa !122
  %34 = load i64, ptr %15, align 8, !tbaa !122
  %35 = add i64 %33, %34
  %36 = getelementptr inbounds nuw float, ptr %32, i64 %35
  %37 = load float, ptr %36, align 4, !tbaa !59
  call void @_update_stats_by_ch(ptr noundef %27, ptr noundef %28, ptr noundef %29, i32 noundef %31, float noundef %37)
  br label %38

38:                                               ; preds = %26
  %39 = load i64, ptr %15, align 8, !tbaa !122
  %40 = add i64 %39, 1
  store i64 %40, ptr %15, align 8, !tbaa !122
  br label %22

41:                                               ; preds = %25
  br label %42

42:                                               ; preds = %41
  %43 = load i64, ptr %13, align 8, !tbaa !122
  %44 = add i64 %43, 4
  store i64 %44, ptr %13, align 8, !tbaa !122
  br label %16

45:                                               ; preds = %20
  ret void
}