; Function Attrs: inlinehint nofree norecurse nosync nounwind memory(argmem: readwrite) uwtable
define internal void @_color_picker_rgb_or_lab(ptr noundef captures(none) %0, ptr noundef captures(none) %1, ptr noundef captures(none) %2, ptr noundef readonly captures(none) %3, i64 noundef %4, ptr readnone captures(none) %5) #5 {
  %.not = icmp eq i64 %4, 0
  br i1 %.not, label %._crit_edge, label %.preheader

.preheader:                                       ; preds = %6, %7
  %.01113 = phi i64 [ %8, %7 ], [ 0, %6 ]
  br label %10

._crit_edge:                                      ; preds = %7, %6
  ret void

7:                                                ; preds = %10
  %8 = add i64 %.01113, 4
  %9 = icmp ult i64 %8, %4
  br i1 %9, label %.preheader, label %._crit_edge

10:                                               ; preds = %.preheader, %10
  %.012 = phi i64 [ 0, %.preheader ], [ %24, %10 ]
  %11 = or disjoint i64 %.012, %.01113
  %12 = getelementptr inbounds nuw float, ptr %3, i64 %11
  %13 = load float, ptr %12, align 4, !tbaa !58
  %14 = getelementptr inbounds nuw float, ptr %0, i64 %.012
  %15 = load float, ptr %14, align 4, !tbaa !58
  %16 = fadd reassoc nsz arcp contract afn float %15, %13
  store float %16, ptr %14, align 4, !tbaa !58
  %17 = getelementptr inbounds nuw float, ptr %1, i64 %.012
  %18 = load float, ptr %17, align 4, !tbaa !58
  %19 = fcmp reassoc nsz arcp contract afn olt float %18, %13
  %..i = select reassoc nsz arcp contract afn i1 %19, float %18, float %13
  store float %..i, ptr %17, align 4, !tbaa !58
  %20 = getelementptr inbounds nuw float, ptr %2, i64 %.012
  %21 = load float, ptr %20, align 4, !tbaa !58
  %22 = fcmp reassoc nsz arcp contract afn ogt float %21, %13
  %23 = select reassoc nsz arcp contract afn i1 %22, float %21, float %13
  store float %23, ptr %20, align 4, !tbaa !58
  %24 = add nuw nsw i64 %.012, 1
  %exitcond.not = icmp eq i64 %24, 4
  br i1 %exitcond.not, label %7, label %10
}